; Function Attrs: inlinehint mustprogress nofree norecurse nounwind ssp memory(readwrite, inaccessiblemem: none) uwtable
define internal fastcc void @"_ZZZN6open3d1t2ioL12WritePCDDataEP8_IO_FILERKNS1_9PCDHeaderERKNS0_8geometry10PointCloudERKNS_2io21WritePointCloudOptionEENK3$_2clEvENKUlvE7_clEv"(ptr noundef nonnull readonly align 8 captures(none) dereferenceable(32) %0) unnamed_addr #31 align 2 {
  %2 = load ptr, ptr %0, align 8, !tbaa !1047
  %3 = getelementptr inbounds nuw i8, ptr %2, i64 32
  %4 = load ptr, ptr %3, align 8, !tbaa !906
  %5 = getelementptr inbounds nuw i8, ptr %2, i64 40
  %6 = load i32, ptr %5, align 8, !tbaa !908
  %7 = icmp sgt i32 %6, 0
  br i1 %7, label %.preheader.lr.ph, label %._crit_edge10

.preheader.lr.ph:                                 ; preds = %1
  %8 = getelementptr inbounds nuw i8, ptr %0, i64 8
  %9 = getelementptr inbounds nuw i8, ptr %0, i64 16
  %10 = getelementptr inbounds nuw i8, ptr %0, i64 24
  %11 = load ptr, ptr %8, align 8, !tbaa !1049
  %12 = load i64, ptr %11, align 8, !tbaa !51
  %13 = icmp sgt i64 %12, 0
  br i1 %13, label %.preheader, label %._crit_edge10

.preheader:                                       ; preds = %.preheader.lr.ph, %._crit_edge
  %14 = phi ptr [ %17, %._crit_edge ], [ %2, %.preheader.lr.ph ]
  %15 = phi i64 [ %18, %._crit_edge ], [ %12, %.preheader.lr.ph ]
  %indvars.iv = phi i64 [ %indvars.iv.next, %._crit_edge ], [ 0, %.preheader.lr.ph ]
  %16 = icmp sgt i64 %15, 0
  br i1 %16, label %.lr.ph, label %._crit_edge

.lr.ph:                                           ; preds = %.preheader
  %invariant.gep = getelementptr i32, ptr %4, i64 %indvars.iv
  %.pre = load ptr, ptr %10, align 8, !tbaa !1050
  %.pre13 = load i32, ptr %.pre, align 4, !tbaa !28
  br label %23

._crit_edge10:                                    ; preds = %._crit_edge, %.preheader.lr.ph, %1
  ret void

._crit_edge.loopexit:                             ; preds = %23
  %.pre14 = load ptr, ptr %0, align 8, !tbaa !1047
  br label %._crit_edge

._crit_edge:                                      ; preds = %._crit_edge.loopexit, %.preheader
  %17 = phi ptr [ %.pre14, %._crit_edge.loopexit ], [ %14, %.preheader ]
  %18 = phi i64 [ %40, %._crit_edge.loopexit ], [ %15, %.preheader ]
  %indvars.iv.next = add nuw nsw i64 %indvars.iv, 1
  %19 = getelementptr inbounds nuw i8, ptr %17, i64 40
  %20 = load i32, ptr %19, align 8, !tbaa !908
  %21 = sext i32 %20 to i64
  %22 = icmp slt i64 %indvars.iv.next, %21
  br i1 %22, label %.preheader, label %._crit_edge10, !llvm.loop !1051

23:                                               ; preds = %.lr.ph, %23
  %24 = phi i32 [ %.pre13, %.lr.ph ], [ %37, %23 ]
  %.08 = phi i64 [ 0, %.lr.ph ], [ %38, %23 ]
  %25 = load ptr, ptr %9, align 8, !tbaa !1052
  %26 = load ptr, ptr %25, align 8, !tbaa !965
  %27 = zext i32 %24 to i64
  %28 = getelementptr inbounds nuw i8, ptr %26, i64 %27
  %29 = load ptr, ptr %0, align 8, !tbaa !1047
  %30 = getelementptr inbounds nuw i8, ptr %29, i64 40
  %31 = load i32, ptr %30, align 8, !tbaa !908
  %32 = sext i32 %31 to i64
  %33 = mul nsw i64 %.08, %32
  %gep = getelementptr i32, ptr %invariant.gep, i64 %33
  %34 = load i32, ptr %gep, align 1
  store i32 %34, ptr %28, align 1
  %35 = load ptr, ptr %10, align 8, !tbaa !1050
  %36 = load i32, ptr %35, align 4, !tbaa !28
  %37 = add i32 %36, 4
  store i32 %37, ptr %35, align 4, !tbaa !28
  %38 = add nuw nsw i64 %.08, 1
  %39 = load ptr, ptr %8, align 8, !tbaa !1049
  %40 = load i64, ptr %39, align 8, !tbaa !51
  %41 = icmp slt i64 %38, %40
  br i1 %41, label %23, label %._crit_edge.loopexit, !llvm.loop !1053
}